Certificate:
    Data:
        Version: 3 (0x2)
        Serial Number:
            ea:1a:96:9d:7f:e2:da:0f
    Signature Algorithm: sha256WithRSAEncryption
        Issuer: C = US, ST = California, L = Cupertino, O = Mist Systems Inc., CN = Mist Systems Internal gcX-staging Endpoint CA
        Validity
            Not Before: Oct 19 07:29:50 2019 GMT
            Not After : Oct 16 07:29:50 2029 GMT
        Subject: C = US, ST = California, L = Cupertino, O = Mist Systems Inc., CN = Mist Systems Internal gcX-staging Endpoint CA
        Subject Public Key Info:
            Public Key Algorithm: rsaEncryption
                Public-Key: (4096 bit)
                Modulus:
                    00:a4:75:9c:19:96:58:3f:db:d5:7b:10:d5:92:be:
                    25:9b:0a:76:7a:78:97:cf:a9:ca:a8:22:af:82:a7:
                    ef:f8:2c:17:32:ea:89:84:fe:a7:6e:69:18:4c:b2:
                    15:1c:19:a5:23:8e:6c:86:c6:88:d3:48:db:df:8a:
                    cc:62:1b:b6:08:2b:9b:94:68:9a:a2:19:1e:17:2b:
                    ad:ba:41:83:ef:dd:7a:1f:39:1f:70:4e:97:a9:1a:
                    e0:51:4b:46:de:bf:58:03:5d:37:bb:3a:c6:da:68:
                    16:60:ae:2a:38:ac:99:11:c6:76:da:40:5e:87:7e:
                    5f:c6:99:97:bd:0b:df:7f:fc:d2:e9:f7:16:7e:6d:
                    7f:11:09:a1:9d:0a:ee:57:9d:34:92:11:09:55:5c:
                    be:5b:02:ae:f8:1e:6a:92:70:fc:7a:39:fb:af:9f:
                    83:49:fb:06:d1:f4:59:32:c8:4a:b3:53:0d:e5:e3:
                    15:20:10:23:9f:52:e5:46:3f:bc:5c:cb:bd:2b:a4:
                    f5:65:cc:f7:ed:1d:b0:dc:fd:e8:02:88:2e:d9:45:
                    c0:1b:a0:d0:c0:f3:e3:44:ad:7c:f9:23:75:69:a0:
                    7e:a4:62:a6:ae:33:12:ec:7c:2b:f3:a2:a4:a5:0f:
                    55:2f:e7:c2:23:93:8d:70:7a:59:45:26:d6:e0:87:
                    33:3d:ca:aa:f9:95:d8:3f:89:ef:7c:93:6b:e5:c3:
                    5e:fb:bb:df:4c:67:97:1b:38:7c:c5:71:07:41:5f:
                    c9:25:74:b8:4b:09:89:a8:47:cc:64:87:96:4b:8d:
                    93:d5:b3:56:80:1c:92:da:26:d8:b0:d2:0a:f3:f5:
                    87:ac:be:d9:23:7f:ef:be:c8:98:22:50:5b:21:e5:
                    43:5d:f9:c2:34:38:48:33:82:a3:94:af:a0:97:2f:
                    70:98:a2:64:0e:05:59:11:74:a3:6e:6e:e6:1a:49:
                    3d:ce:5d:ca:de:9f:a2:89:ef:2f:f5:d2:74:9a:ae:
                    df:2e:b3:12:77:5d:24:d0:6c:f2:7a:8d:e9:65:fb:
                    a1:7e:86:6f:55:54:fe:7c:78:b3:4b:04:a2:3b:06:
                    24:e1:df:6d:17:08:ed:14:6f:2a:0f:ee:af:5f:59:
                    cb:57:41:a9:56:97:fe:80:38:d1:ed:6f:e7:08:2e:
                    69:77:c5:29:ef:7d:26:e0:6f:eb:09:44:d0:35:36:
                    42:fc:c3:99:42:e8:27:62:f5:03:4f:29:fe:18:3b:
                    2d:b0:f3:61:02:13:08:9c:4e:8e:b9:60:f7:ee:e0:
                    4f:2e:a2:6d:b8:b8:eb:bf:e3:bd:f0:f8:05:3d:99:
                    e7:5a:de:77:ac:f1:23:60:50:f2:8f:7d:3e:ac:d9:
                    57:4f:79
                Exponent: 65537 (0x10001)
        X509v3 extensions:
            X509v3 Subject Key Identifier: 
                86:7F:6D:52:92:33:2D:83:76:BD:CD:05:8A:D8:02:C4:A1:AE:35:27
            X509v3 Authority Key Identifier: 
                keyid:86:7F:6D:52:92:33:2D:83:76:BD:CD:05:8A:D8:02:C4:A1:AE:35:27

            X509v3 Basic Constraints: 
                CA:TRUE
    Signature Algorithm: sha256WithRSAEncryption
         a3:4a:bf:11:7d:9b:a2:a8:a7:49:df:db:82:50:97:c4:d7:ee:
         6e:38:32:f8:4d:2e:0f:76:6c:70:ab:b4:8b:16:f8:1c:87:66:
         4b:8c:cd:2c:96:48:b5:91:bd:80:f0:43:c2:03:0f:cf:e9:4e:
         7e:9d:ea:38:0e:bd:e3:de:84:1f:51:a2:60:10:ff:e3:08:ae:
         3c:24:bb:24:bf:c9:e9:37:92:28:e6:fd:68:a2:d6:d5:56:f0:
         ad:61:f7:3e:28:2a:d1:b4:0a:02:d2:98:bf:7e:88:d0:23:b5:
         bc:9a:39:ab:dc:9d:14:7a:b6:e5:2c:6b:3e:51:88:3f:01:f1:
         ad:36:7e:28:10:1e:01:0b:34:13:4c:5a:fa:23:1f:06:a3:ee:
         7c:8e:71:62:f7:5c:92:bb:2f:6f:e4:ec:37:e3:56:4f:f7:2e:
         92:b9:78:75:40:d9:58:0e:75:37:6e:1a:d9:ec:4c:d9:dd:3c:
         08:3a:1d:15:80:e9:12:40:67:94:90:15:cf:b8:70:de:30:87:
         cf:f8:64:68:53:da:81:94:1d:45:9c:ce:83:d9:ce:5f:45:40:
         9e:bc:c6:18:e7:3e:e0:f7:7c:49:07:31:2e:b6:e4:6a:43:1c:
         5a:e6:f0:c8:d3:5d:a5:01:14:e2:2e:a8:3b:d8:cf:67:22:71:
         c2:94:9a:51:e2:f1:d0:7e:6d:13:42:eb:8c:80:f4:97:12:25:
         12:50:6b:44:ea:86:58:5d:a6:87:b2:66:b9:cf:a4:92:9e:9a:
         5a:ba:c4:ca:14:4f:70:75:41:32:8e:9a:ff:ef:d2:f9:b7:65:
         e0:ac:34:52:10:cb:91:2c:0a:92:05:22:e2:82:2d:10:e8:98:
         53:26:ec:fa:97:fe:69:0c:fe:38:62:9b:ea:95:3e:67:c6:7e:
         99:c3:c5:29:47:c7:7b:77:e6:db:fa:f6:75:fb:69:c9:44:b4:
         c2:c0:2f:d5:b1:d0:24:5f:a8:20:1c:d8:c2:d2:a2:ab:1e:b0:
         42:6c:54:6c:e0:3a:8f:ac:98:74:58:66:73:4c:b7:bf:1a:f9:
         5c:12:f1:63:1d:b7:40:e7:f5:8c:53:1d:8e:4a:8b:db:2c:77:
         9b:99:89:0e:29:43:bd:64:4a:34:af:42:9b:ad:37:8a:51:9b:
         d9:75:13:30:a0:43:17:84:3f:eb:15:9c:00:4d:30:58:48:56:
         8e:c6:bb:ae:5a:a0:e1:0a:7c:1a:00:21:35:88:c7:27:dd:b1:
         7a:f1:56:dc:78:54:96:51:1c:f7:a6:30:9e:73:f7:b9:25:d8:
         82:3f:92:ac:01:a0:1c:78:f8:4a:7e:85:64:0b:6a:58:08:bb:
         e4:e6:e0:ce:77:78:f6:ad
-----BEGIN CERTIFICATE-----
MIIF6TCCA9GgAwIBAgIJAOoalp1/4toPMA0GCSqGSIb3DQEBCwUAMIGKMQswCQYD
VQQGEwJVUzETMBEGA1UECAwKQ2FsaWZvcm5pYTESMBAGA1UEBwwJQ3VwZXJ0aW5v
MRowGAYDVQQKDBFNaXN0IFN5c3RlbXMgSW5jLjE2MDQGA1UEAwwtTWlzdCBTeXN0
ZW1zIEludGVybmFsIGdjWC1zdGFnaW5nIEVuZHBvaW50IENBMB4XDTE5MTAxOTA3
Mjk1MFoXDTI5MTAxNjA3Mjk1MFowgYoxCzAJBgNVBAYTAlVTMRMwEQYDVQQIDApD
YWxpZm9ybmlhMRIwEAYDVQQHDAlDdXBlcnRpbm8xGjAYBgNVBAoMEU1pc3QgU3lz
dGVtcyBJbmMuMTYwNAYDVQQDDC1NaXN0IFN5c3RlbXMgSW50ZXJuYWwgZ2NYLXN0
YWdpbmcgRW5kcG9pbnQgQ0EwggIiMA0GCSqGSIb3DQEBAQUAA4ICDwAwggIKAoIC
AQCkdZwZllg/29V7ENWSviWbCnZ6eJfPqcqoIq+Cp+/4LBcy6omE/qduaRhMshUc
GaUjjmyGxojTSNvfisxiG7YIK5uUaJqiGR4XK626QYPv3XofOR9wTpepGuBRS0be
v1gDXTe7OsbaaBZgrio4rJkRxnbaQF6Hfl/GmZe9C99//NLp9xZ+bX8RCaGdCu5X
nTSSEQlVXL5bAq74HmqScPx6Ofuvn4NJ+wbR9FkyyEqzUw3l4xUgECOfUuVGP7xc
y70rpPVlzPftHbDc/egCiC7ZRcAboNDA8+NErXz5I3VpoH6kYqauMxLsfCvzoqSl
D1Uv58Ijk41wellFJtbghzM9yqr5ldg/ie98k2vlw177u99MZ5cbOHzFcQdBX8kl
dLhLCYmoR8xkh5ZLjZPVs1aAHJLaJtiw0grz9Yesvtkjf+++yJgiUFsh5UNd+cI0
OEgzgqOUr6CXL3CYomQOBVkRdKNubuYaST3OXcren6KJ7y/10nSart8usxJ3XSTQ
bPJ6jell+6F+hm9VVP58eLNLBKI7BiTh320XCO0UbyoP7q9fWctXQalWl/6AONHt
b+cILml3xSnvfSbgb+sJRNA1NkL8w5lC6Cdi9QNPKf4YOy2w82ECEwicTo65YPfu
4E8uom24uOu/473w+AU9meda3nes8SNgUPKPfT6s2VdPeQIDAQABo1AwTjAdBgNV
HQ4EFgQUhn9tUpIzLYN2vc0FitgCxKGuNScwHwYDVR0jBBgwFoAUhn9tUpIzLYN2
vc0FitgCxKGuNScwDAYDVR0TBAUwAwEB/zANBgkqhkiG9w0BAQsFAAOCAgEAo0q/
EX2boqinSd/bglCXxNfubjgy+E0uD3ZscKu0ixb4HIdmS4zNLJZItZG9gPBDwgMP
z+lOfp3qOA69496EH1GiYBD/4wiuPCS7JL/J6TeSKOb9aKLW1VbwrWH3Pigq0bQK
AtKYv36I0CO1vJo5q9ydFHq25SxrPlGIPwHxrTZ+KBAeAQs0E0xa+iMfBqPufI5x
Yvdckrsvb+TsN+NWT/cukrl4dUDZWA51N24a2exM2d08CDodFYDpEkBnlJAVz7hw
3jCHz/hkaFPagZQdRZzOg9nOX0VAnrzGGOc+4Pd8SQcxLrbkakMcWubwyNNdpQEU
4i6oO9jPZyJxwpSaUeLx0H5tE0LrjID0lxIlElBrROqGWF2mh7Jmuc+kkp6aWrrE
yhRPcHVBMo6a/+/S+bdl4Kw0UhDLkSwKkgUi4oItEOiYUybs+pf+aQz+OGKb6pU+
Z8Z+mcPFKUfHe3fm2/r2dftpyUS0wsAv1bHQJF+oIBzYwtKiqx6wQmxUbOA6j6yY
dFhmc0y3vxr5XBLxYx23QOf1jFMdjkqL2yx3m5mJDilDvWRKNK9Cm603ilGb2XUT
MKBDF4Q/6xWcAE0wWEhWjsa7rlqg4Qp8GgAhNYjHJ92xevFW3HhUllEc96YwnnP3
uSXYgj+SrAGgHHj4Sn6FZAtqWAi75Obgznd49q0=
-----END CERTIFICATE-----
