Certificate:
    Data:
        Version: 3 (0x2)
        Serial Number:
            62:02:f4:3e:1b:aa:20:2f:a2:d0:75:a0:fc:0b:49:d8:87:9f:92:1c
        Signature Algorithm: sha384WithRSAEncryption
        Issuer: C = US, ST = California, L = Cupertino, O = Mist Systems Inc., CN = Mist Systems Internal gc2 Endpoint CA, emailAddress = certs@mistsys.com
        Validity
            Not Before: Oct 15 23:07:28 2021 GMT
            Not After : Oct 13 23:07:28 2031 GMT
        Subject: C = US, ST = California, L = Cupertino, O = Mist Systems Inc., CN = Mist Systems Internal gc2 Endpoint CA, emailAddress = certs@mistsys.com
        Subject Public Key Info:
            Public Key Algorithm: rsaEncryption
                RSA Public-Key: (4096 bit)
                Modulus:
                Exponent: 65537 (0x10001)
        X509v3 extensions:
            X509v3 Subject Key Identifier: 
                AD:C4:4E:F8:CB:57:B8:A5:A5:CB:85:A0:55:AC:70:16:98:66:C9:A8
            X509v3 Authority Key Identifier: 
                keyid:AD:C4:4E:F8:CB:57:B8:A5:A5:CB:85:A0:55:AC:70:16:98:66:C9:A8

            X509v3 Basic Constraints: 
                CA:TRUE
    Signature Algorithm: sha384WithRSAEncryption
-----BEGIN CERTIFICATE-----
MIIGKDCCBBCgAwIBAgIUYgL0PhuqIC+i0HWg/AtJ2IefkhwwDQYJKoZIhvcNAQEM
BQAwgaQxCzAJBgNVBAYTAlVTMRMwEQYDVQQIDApDYWxpZm9ybmlhMRIwEAYDVQQH
DAlDdXBlcnRpbm8xGjAYBgNVBAoMEU1pc3QgU3lzdGVtcyBJbmMuMS4wLAYDVQQD
DCVNaXN0IFN5c3RlbXMgSW50ZXJuYWwgZ2MyIEVuZHBvaW50IENBMSAwHgYJKoZI
hvcNAQkBFhFjZXJ0c0BtaXN0c3lzLmNvbTAeFw0yMTEwMTUyMzA3MjhaFw0zMTEw
MTMyMzA3MjhaMIGkMQswCQYDVQQGEwJVUzETMBEGA1UECAwKQ2FsaWZvcm5pYTES
MBAGA1UEBwwJQ3VwZXJ0aW5vMRowGAYDVQQKDBFNaXN0IFN5c3RlbXMgSW5jLjEu
MCwGA1UEAwwlTWlzdCBTeXN0ZW1zIEludGVybmFsIGdjMiBFbmRwb2ludCBDQTEg
MB4GCSqGSIb3DQEJARYRY2VydHNAbWlzdHN5cy5jb20wggIiMA0GCSqGSIb3DQEB
AQUAA4ICDwAwggIKAoICAQC+Npn91knyrvjuPFUf68jD5YCb5kfY/vMQS7aUW3LV
6GQNt7OyRaBF34bbn9xEUy1d/sD3VdL4nky6acSlodzNvQOPxOneAAgPFj9O33Um
8CS0TxE+ljPN04Y/GcZdWAbFxph/VDQzfjbLKEmwRKRLVT7oCLoqzBQ1QGiORfMG
Au17MlJ7+dlHCbsVRNsqQforL1kpdC5QKCCjNJ4ncWi6wH8mpHcKZ1ZE+aRcMLvL
cWCxGQsitmnlzARzmzO/y+G4ugIj7GoNeTraaov0slaP0Wk9hUyZ/7wdMZkqXRrj
Or59Ax1yQMIvmx9JGVJ0YznMBL8tNpS5gmZvd63V2KgX0ugWBSOckkmhhTGTLjpT
R1C4TCqpM3ISjW2kacYA2mamF8xy8OZCsEhnYrEyz1oyWxyaP4JAtcKYVI5Nl2oK
LtKfnc+Jw1yBBpWZiIzoukFBkp/uA9S1RyVQpCzT5/9x8ff4VPz2fe5zCsD8hDbp
bA7r2v4nmCfCpZxpzgAbZeEw3+kt4qGB824+JqH7jOIDy1uXY3AO1Rvlt+2hw5Ua
nkeBnUgl/QwyULxdkPaHCgYBrvSnagl43teOJiyh0j6FIzrEOo80QX9Jcvh1/zxb
FEBQHk/4Is09EvsWSc5rRJlE4bDDpffuRr8F7Xn+/KTSEt186TAUZkV0wTWbvrKh
LQIDAQABo1AwTjAdBgNVHQ4EFgQUrcRO+MtXuKWly4WgVaxwFphmyagwHwYDVR0j
BBgwFoAUrcRO+MtXuKWly4WgVaxwFphmyagwDAYDVR0TBAUwAwEB/zANBgkqhkiG
9w0BAQwFAAOCAgEAlNJ4MfNyxiraqqbD6SQkX+cx1A66BVG9WcYN+Wq/J7bglEKb
eXBlWy8Dd8VVynBZ0wU1aADBUpsyu5HN554aibT2fUinmiGFlNMFCHDYbolzzDkd
j9q2XWuvGKuPWgsgOI2fgjOLGuuSLfdrxnToPs4WHTI02TUFfZeN5sAsGWHoC2gm
QAlhhTuL4jtb9112gR+J9n+r11bivM1HHAJ3jrnv605uFG0DxvpgnVpp7DIwK9B/
o0otN2SvMrrvPw/FhaK9zXcVqLlHOvIMVuLZINEg8lZI7rBxR1/hIM6exiv1ZpnH
XVFzXxEEyQvDj+HAQSL6vWwi8B8z0m8W37+dkz/N1RynUFjhqJs+cBVYjUckSL8T
/XkjuYfxrRJOFCVy4gv9w1pSjAMT7G7XNimRixy/Q2AaVoggl09harqJY86JCt29
7jl75c+HDl6WeKpgxrzk3tyUlw8re+lqnIGLOlyEXd88TNraMTEcy9HoxPilhVfm
YnGGIZ2+l8dpVDEiEd+3vPIrbr9c64wRKepRCbqzBAyN02ytmRWhDYCYFF5pdqEV
Mk+dhDkcQZeIrD/0M5YePMegBNwRLe25bxT7vD+pmsG3EENg/QGEYFOxS1dTWCDx
BGEWm+qC1E/suRFw+gN1mUGAemxa/5QMjhU1FDHASMirI9Ip94sFiHff7Eg=
-----END CERTIFICATE-----
