Certificate:
    Data:
        Version: 3 (0x2)
        Serial Number:
            d5:e7:fa:0f:e8:47:1f:b3
    Signature Algorithm: sha256WithRSAEncryption
        Issuer: C = US, ST = California, L = Cupertino, O = Mist Systems Inc., CN = Mist Systems Internal gcX Endpoint CA
        Validity
            Not Before: Oct 19 07:28:04 2019 GMT
            Not After : Oct 16 07:28:04 2029 GMT
        Subject: C = US, ST = California, L = Cupertino, O = Mist Systems Inc., CN = Mist Systems Internal gcX Endpoint CA
        Subject Public Key Info:
            Public Key Algorithm: rsaEncryption
                Public-Key: (4096 bit)
                Modulus:
                    00:c3:d0:f3:7f:0a:69:2c:72:78:31:11:8d:16:e9:
                    6f:8b:8a:95:5f:85:e1:9a:9c:f2:0c:70:c8:ac:d4:
                    f3:58:d4:eb:c2:14:35:f3:a3:a1:68:2d:58:88:38:
                    e9:fc:fd:75:5c:34:33:2f:4d:13:ab:30:1f:81:08:
                    2e:8b:49:46:4d:6c:92:a5:26:67:04:26:07:bc:69:
                    56:c7:a3:8a:2a:d4:d9:2d:f8:60:de:22:ef:06:8c:
                    bf:c7:38:4c:b0:11:95:ea:8b:81:b3:e8:d8:41:a0:
                    6e:80:51:44:59:ac:43:32:7f:20:bf:b9:89:86:36:
                    91:8b:5d:3c:c6:4e:88:17:48:63:e3:87:ed:93:df:
                    26:be:65:d5:f2:85:8c:32:2f:33:4a:91:73:d7:b9:
                    58:5c:f0:29:3b:6c:33:5d:65:b3:fd:48:be:66:20:
                    cd:12:6b:b4:95:26:be:a9:82:48:a5:94:1d:ca:32:
                    ef:b8:c4:9a:28:cc:d1:41:ef:34:65:6e:22:b1:69:
                    19:c2:aa:bb:b8:10:0f:17:1c:e2:dd:13:88:b3:e0:
                    1f:df:b6:af:fc:bc:60:db:63:0b:1b:dd:6e:cf:96:
                    c3:c3:1d:1f:3f:24:75:c2:fb:f2:a8:2c:7d:00:55:
                    b2:58:4b:71:8a:d4:a9:be:5f:6f:48:a9:c3:e1:ef:
                    18:0d:7c:fa:70:5a:de:5d:da:a8:9a:3d:ef:70:c3:
                    16:60:91:1d:10:a5:b0:62:42:8d:3d:49:0a:07:88:
                    d2:b2:a8:12:9d:8f:d7:df:51:4a:b5:52:ad:e0:80:
                    79:66:96:b4:28:5a:47:cc:b3:24:ab:5b:a1:ce:ee:
                    b4:4a:3c:fb:26:0c:2e:bb:2e:91:c0:33:6a:2a:95:
                    1f:c0:74:45:50:bc:f4:a4:b6:f5:38:51:2e:be:39:
                    5b:d8:89:89:8a:e8:5d:bf:08:5e:5c:b8:66:31:19:
                    55:77:78:d7:ca:31:cd:a8:a8:7d:c3:22:bf:80:7c:
                    a8:8c:d0:47:26:31:14:90:23:d5:70:66:13:e1:37:
                    ba:83:34:85:96:98:54:5a:40:73:3e:c6:0d:55:ee:
                    6f:9f:1a:11:a6:bf:0a:0c:cb:79:89:78:1e:b9:aa:
                    9a:97:40:6a:2b:78:e4:e2:06:c4:5b:b9:15:eb:a5:
                    35:37:fb:8d:82:bf:94:06:6c:25:66:a2:e3:84:8b:
                    1a:ee:7d:fd:47:de:1a:7b:04:76:95:d7:cc:3a:9e:
                    53:a7:de:17:5f:c9:8d:2b:7f:b8:3d:33:12:b4:82:
                    84:07:29:03:30:f0:c1:a4:83:d9:d7:79:fa:00:13:
                    50:ef:aa:24:0e:fb:0a:fa:f9:57:cc:da:cf:cd:7f:
                    0d:c1:dd
                Exponent: 65537 (0x10001)
        X509v3 extensions:
            X509v3 Subject Key Identifier: 
                12:3C:7A:5D:C1:1B:80:DB:32:CE:AA:D1:A3:3D:68:67:26:C2:DE:FE
            X509v3 Authority Key Identifier: 
                keyid:12:3C:7A:5D:C1:1B:80:DB:32:CE:AA:D1:A3:3D:68:67:26:C2:DE:FE

            X509v3 Basic Constraints: 
                CA:TRUE
    Signature Algorithm: sha256WithRSAEncryption
         88:5f:ad:c3:1c:7f:08:31:73:30:64:0a:6e:e1:da:fc:14:93:
         ed:a2:ea:75:6a:f7:c2:ee:a1:47:dc:b1:9f:5b:c9:d3:02:57:
         d8:1f:b7:35:86:84:60:62:e5:94:f7:b5:b3:c2:ee:63:d1:6e:
         3b:ec:ae:6a:d2:e8:e3:b1:d0:a0:ca:1c:c3:cc:17:45:04:3a:
         4d:40:81:7e:9c:9c:d8:d2:68:fe:aa:d2:cc:16:48:08:2a:35:
         0c:67:0f:75:52:17:0c:42:5e:10:2b:85:49:ad:1e:b2:f9:ad:
         6e:ec:98:c6:e3:59:b4:03:a9:de:5f:13:f6:6e:e2:44:33:5b:
         1e:47:0f:c0:bd:a4:d0:1c:23:ae:7d:3b:c1:ca:5b:3f:d2:25:
         bb:d9:07:6b:bb:56:7d:67:73:33:36:d8:de:0f:9b:b1:c6:ab:
         02:ba:11:f2:ff:c8:9e:8e:a6:22:b3:03:c6:80:27:6c:4b:df:
         a9:68:65:45:2c:8a:79:73:5b:48:0f:46:d5:e6:b9:20:c4:49:
         96:68:7c:b4:3d:1d:ed:c9:ec:ad:53:0a:2b:62:82:f2:a1:51:
         eb:64:ee:a9:8d:ef:b0:0a:15:ac:0a:6f:f4:df:f4:2c:8b:df:
         ff:45:a4:8a:31:c3:3f:54:ce:74:15:5e:c3:90:6f:fd:d5:ee:
         1f:29:35:e8:5f:ae:34:91:aa:fb:fc:68:c2:a5:ef:f0:7c:b1:
         14:e5:f6:56:d2:b1:66:87:2a:b1:1b:e4:d3:d1:28:1b:28:c8:
         a0:44:d5:b9:ea:31:24:b0:9b:45:91:59:60:7e:f0:75:c3:bb:
         7b:b4:a8:ba:20:17:7e:40:7f:58:74:29:85:dd:9c:a4:29:32:
         67:c0:c8:23:1c:2d:3b:3d:02:49:f3:73:a5:a5:46:46:a9:78:
         a2:91:e8:ba:97:a0:36:79:2e:b7:38:38:e0:32:a0:92:b4:71:
         7c:92:4a:e9:73:7b:c1:2a:10:3a:b6:15:51:b4:22:d7:98:36:
         ac:c1:88:bd:0d:ec:11:c3:67:b8:f0:b5:0c:75:fe:82:63:a8:
         cc:40:d9:29:11:79:47:32:13:91:01:eb:90:2b:58:55:f7:5d:
         d1:ad:ac:03:6f:21:ca:c5:35:2e:30:40:fd:0f:0e:49:bd:f1:
         38:25:ec:83:b9:7a:fd:66:a4:fd:3b:39:2b:43:96:e7:5d:f6:
         b0:63:a3:eb:f4:7c:ee:f1:a8:c7:37:94:d4:f8:7e:1d:2b:ef:
         d2:14:14:0b:ff:f8:dc:4a:d2:52:db:82:fb:a1:e6:06:80:84:
         75:3c:c5:f0:5f:18:11:d4:d4:6b:e5:75:e6:b1:df:ee:79:74:
         24:03:81:1a:5a:c4:f4:55
-----BEGIN CERTIFICATE-----
MIIF2TCCA8GgAwIBAgIJANXn+g/oRx+zMA0GCSqGSIb3DQEBCwUAMIGCMQswCQYD
VQQGEwJVUzETMBEGA1UECAwKQ2FsaWZvcm5pYTESMBAGA1UEBwwJQ3VwZXJ0aW5v
MRowGAYDVQQKDBFNaXN0IFN5c3RlbXMgSW5jLjEuMCwGA1UEAwwlTWlzdCBTeXN0
ZW1zIEludGVybmFsIGdjWCBFbmRwb2ludCBDQTAeFw0xOTEwMTkwNzI4MDRaFw0y
OTEwMTYwNzI4MDRaMIGCMQswCQYDVQQGEwJVUzETMBEGA1UECAwKQ2FsaWZvcm5p
YTESMBAGA1UEBwwJQ3VwZXJ0aW5vMRowGAYDVQQKDBFNaXN0IFN5c3RlbXMgSW5j
LjEuMCwGA1UEAwwlTWlzdCBTeXN0ZW1zIEludGVybmFsIGdjWCBFbmRwb2ludCBD
QTCCAiIwDQYJKoZIhvcNAQEBBQADggIPADCCAgoCggIBAMPQ838KaSxyeDERjRbp
b4uKlV+F4Zqc8gxwyKzU81jU68IUNfOjoWgtWIg46fz9dVw0My9NE6swH4EILotJ
Rk1skqUmZwQmB7xpVsejiirU2S34YN4i7waMv8c4TLARleqLgbPo2EGgboBRRFms
QzJ/IL+5iYY2kYtdPMZOiBdIY+OH7ZPfJr5l1fKFjDIvM0qRc9e5WFzwKTtsM11l
s/1IvmYgzRJrtJUmvqmCSKWUHcoy77jEmijM0UHvNGVuIrFpGcKqu7gQDxcc4t0T
iLPgH9+2r/y8YNtjCxvdbs+Ww8MdHz8kdcL78qgsfQBVslhLcYrUqb5fb0ipw+Hv
GA18+nBa3l3aqJo973DDFmCRHRClsGJCjT1JCgeI0rKoEp2P199RSrVSreCAeWaW
tChaR8yzJKtboc7utEo8+yYMLrsukcAzaiqVH8B0RVC89KS29ThRLr45W9iJiYro
Xb8IXly4ZjEZVXd418oxzaiofcMiv4B8qIzQRyYxFJAj1XBmE+E3uoM0hZaYVFpA
cz7GDVXub58aEaa/CgzLeYl4HrmqmpdAait45OIGxFu5FeulNTf7jYK/lAZsJWai
44SLGu59/UfeGnsEdpXXzDqeU6feF1/JjSt/uD0zErSChAcpAzDwwaSD2dd5+gAT
UO+qJA77Cvr5V8zaz81/DcHdAgMBAAGjUDBOMB0GA1UdDgQWBBQSPHpdwRuA2zLO
qtGjPWhnJsLe/jAfBgNVHSMEGDAWgBQSPHpdwRuA2zLOqtGjPWhnJsLe/jAMBgNV
HRMEBTADAQH/MA0GCSqGSIb3DQEBCwUAA4ICAQCIX63DHH8IMXMwZApu4dr8FJPt
oup1avfC7qFH3LGfW8nTAlfYH7c1hoRgYuWU97Wzwu5j0W477K5q0ujjsdCgyhzD
zBdFBDpNQIF+nJzY0mj+qtLMFkgIKjUMZw91UhcMQl4QK4VJrR6y+a1u7JjG41m0
A6neXxP2buJEM1seRw/AvaTQHCOufTvByls/0iW72Qdru1Z9Z3MzNtjeD5uxxqsC
uhHy/8iejqYiswPGgCdsS9+paGVFLIp5c1tID0bV5rkgxEmWaHy0PR3tyeytUwor
YoLyoVHrZO6pje+wChWsCm/03/Qsi9//RaSKMcM/VM50FV7DkG/91e4fKTXoX640
kar7/GjCpe/wfLEU5fZW0rFmhyqxG+TT0SgbKMigRNW56jEksJtFkVlgfvB1w7t7
tKi6IBd+QH9YdCmF3ZykKTJnwMgjHC07PQJJ83OlpUZGqXiikei6l6A2eS63ODjg
MqCStHF8kkrpc3vBKhA6thVRtCLXmDaswYi9DewRw2e48LUMdf6CY6jMQNkpEXlH
MhORAeuQK1hV913RrawDbyHKxTUuMED9Dw5JvfE4JeyDuXr9ZqT9OzkrQ5bnXfaw
Y6Pr9Hzu8ajHN5TU+H4dK+/SFBQL//jcStJS24L7oeYGgIR1PMXwXxgR1NRr5XXm
sd/ueXQkA4EaWsT0VQ==
-----END CERTIFICATE-----
