Certificate:
    Data:
        Version: 3 (0x2)
        Serial Number:
            6d:50:76:c2:44:91:83:fe:17:2c:44:63:ca:74:42:3d:f9:28:0b:59
        Signature Algorithm: sha256WithRSAEncryption
        Issuer: C = US, ST = California, L = Cupertino, O = Mist Systems Inc., OU = Engineering, CN = staging ep-term CA, emailAddress = nic.dade@mistsys.com
        Validity
            Not Before: Jul 30 23:44:16 2020 GMT
            Not After : Jul 28 23:44:16 2030 GMT
        Subject: C = US, ST = California, L = Cupertino, O = Mist Systems Inc., OU = Engineering, CN = staging ep-term CA, emailAddress = nic.dade@mistsys.com
        Subject Public Key Info:
            Public Key Algorithm: rsaEncryption
                RSA Public-Key: (4096 bit)
                Modulus:
                    00:be:95:81:9d:66:84:3d:43:17:97:fb:65:31:fb:
                    0a:96:99:22:25:24:f3:72:bc:4e:e8:94:d3:8e:4f:
                    a1:21:33:cb:3f:a6:2d:04:e1:f7:da:db:57:79:02:
                    9d:a7:c9:c3:6c:11:29:06:58:99:24:57:6f:bb:98:
                    62:64:9f:95:7a:70:7f:b3:53:d9:48:03:26:ca:f9:
                    ed:df:e0:d5:8b:7e:17:dc:f8:1d:57:dc:b3:f7:c6:
                    0e:ef:9a:97:12:92:88:47:3a:9b:4f:32:16:c6:0e:
                    ad:36:5a:e9:15:f5:43:96:d4:c4:5d:19:92:2f:93:
                    3a:c4:b0:06:13:e8:69:31:e1:d9:8e:bc:2e:24:18:
                    28:af:15:8c:d5:b7:3c:cb:8c:2c:44:e3:3c:20:22:
                    77:eb:3f:93:f3:95:bc:db:c0:bb:dd:14:0a:4c:27:
                    a1:6a:a5:17:49:a1:92:80:8b:fc:aa:07:98:8a:ed:
                    21:c9:9b:27:98:8b:1a:70:70:8f:a3:39:f9:78:58:
                    89:e2:cf:f9:26:a2:49:1b:1c:6d:77:80:86:37:d8:
                    30:8e:13:01:c1:8d:28:19:cb:94:0a:ba:d9:48:3b:
                    d9:ee:69:74:67:eb:de:43:6b:f4:8b:8d:99:56:09:
                    9f:19:46:ef:1a:3b:91:a5:08:7b:d5:fd:fd:e7:40:
                    eb:ff:27:8d:f8:d1:4a:ee:73:40:05:9a:42:80:28:
                    52:a7:2e:79:fc:0f:54:bf:81:7e:f8:5a:bd:2c:64:
                    e9:a8:a4:19:a2:5b:cf:30:bd:f6:9b:ca:60:ee:e9:
                    b9:1d:84:87:2d:f6:2d:22:3d:ed:7f:9b:f5:6e:95:
                    02:5c:22:a5:b7:1a:f3:53:58:70:29:02:fb:a0:a8:
                    ee:10:95:67:d1:c2:6e:d5:60:db:69:c6:79:f5:05:
                    f9:7f:b4:72:e9:b9:c8:e3:73:35:30:e6:4b:dd:a9:
                    a6:18:44:dc:48:2d:ec:b0:85:bb:d8:7c:80:3a:49:
                    81:44:0b:64:91:9d:33:19:fa:eb:dd:3a:0c:82:a8:
                    9b:45:16:5f:0f:62:82:1f:d4:76:cd:41:72:72:cd:
                    52:75:46:65:52:db:cb:52:a3:5a:ea:92:e7:f4:72:
                    27:ef:b0:85:a5:e0:01:a0:44:2a:6c:8e:83:9c:46:
                    89:d3:81:58:a0:b8:02:d9:80:43:cc:22:ed:ab:2b:
                    a4:2f:cb:41:78:ef:30:de:75:69:ba:c2:b4:a5:2e:
                    90:c8:49:a7:a5:84:29:5d:e4:f0:b7:72:6d:cd:ae:
                    d5:bc:c2:93:48:2b:44:f0:f1:d5:da:80:23:87:e7:
                    79:90:19:49:f0:30:0b:fc:d6:05:46:ad:a5:1e:2b:
                    a6:85:cf
                Exponent: 65537 (0x10001)
        X509v3 extensions:
            X509v3 Subject Key Identifier: 
                AE:C6:45:60:00:5E:CB:04:05:31:7A:E9:C1:2F:9B:1C:1A:01:68:DA
            X509v3 Authority Key Identifier: 
                keyid:AE:C6:45:60:00:5E:CB:04:05:31:7A:E9:C1:2F:9B:1C:1A:01:68:DA

            X509v3 Basic Constraints: 
                CA:TRUE
    Signature Algorithm: sha256WithRSAEncryption
         b4:1e:04:81:a3:b0:0b:9e:ac:5d:46:3e:c7:7c:3d:ac:c8:3d:
         1e:b5:42:04:3d:2d:bb:1e:a3:02:93:c7:ed:83:86:3b:f1:e3:
         d2:90:ba:14:fb:b0:fa:dd:ac:06:63:2e:eb:48:81:48:15:b9:
         b9:b8:f8:2c:b8:2f:96:31:28:2a:1b:61:11:a4:fd:2b:35:42:
         5e:74:4b:60:7e:ec:35:79:03:e3:78:62:8f:53:97:b1:ab:93:
         f4:b6:9f:c1:e3:9f:a0:0a:c6:e7:af:fb:79:83:49:12:0f:dc:
         46:af:b1:fa:57:55:6b:43:4a:99:22:3a:ce:9c:05:b1:c7:d0:
         9f:bd:07:f7:18:10:dc:cd:30:82:ef:49:b5:0c:7d:e7:43:06:
         4d:74:f2:83:1c:a7:58:32:8f:cb:ae:9f:46:b7:e1:1a:11:19:
         a4:c5:95:ff:fe:76:a7:4f:97:72:8d:cd:36:b6:22:09:a6:02:
         90:9c:2e:9c:18:07:83:e8:f7:ed:17:f2:e4:18:6c:1f:5e:f4:
         21:02:1d:52:26:e0:38:47:02:ce:ef:e3:ad:59:de:81:8a:47:
         b7:2c:37:d9:a5:71:2e:5a:9c:7d:2e:2a:7e:b3:27:1b:5c:a5:
         0c:a9:6a:ac:21:6d:d3:66:9c:7a:05:fd:c6:8b:da:a7:67:1f:
         01:8d:03:dd:c3:3a:3c:c7:fc:e6:0b:20:d5:e5:9d:00:8a:f5:
         54:8c:81:08:59:01:38:60:81:30:45:b6:5e:00:45:f6:6d:0a:
         29:24:c9:4f:57:02:04:66:83:32:71:83:a3:7b:cf:99:97:84:
         d0:42:39:1a:df:21:d3:b9:96:68:df:29:c3:b0:2e:ba:07:82:
         c1:f5:5d:dd:cc:4b:87:e1:89:81:27:86:35:78:29:20:a7:3b:
         07:58:e6:53:26:50:20:48:a9:cd:4b:e2:81:ef:7d:30:3c:12:
         75:66:bb:b0:06:7b:08:48:80:cb:14:ca:1d:be:3a:6b:39:f8:
         7c:20:74:4b:b1:66:1c:fa:ba:7e:87:09:86:44:d7:9a:26:b8:
         17:b8:cc:23:a7:aa:b9:9d:d6:03:75:29:4a:1c:97:98:5d:ed:
         ba:90:0c:a5:f3:26:82:01:04:e7:50:ba:64:e9:64:81:7c:d6:
         4f:04:4b:7a:5a:b9:7e:c1:06:6b:9c:ba:72:da:e8:64:38:2f:
         91:00:2e:90:ab:37:b8:1a:1e:ba:2a:4a:fb:10:a1:5b:d2:8f:
         ec:78:49:70:1a:ae:61:5f:c6:75:ed:d5:8e:2c:48:ac:16:48:
         62:f0:ad:80:0d:7c:93:11:ba:98:ba:91:d7:20:c9:3a:d0:e0:
         6c:52:2e:9c:36:bc:a8:b3
-----BEGIN CERTIFICATE-----
MIIGNDCCBBygAwIBAgIUbVB2wkSRg/4XLERjynRCPfkoC1kwDQYJKoZIhvcNAQEL
BQAwgaoxCzAJBgNVBAYTAlVTMRMwEQYDVQQIDApDYWxpZm9ybmlhMRIwEAYDVQQH
DAlDdXBlcnRpbm8xGjAYBgNVBAoMEU1pc3QgU3lzdGVtcyBJbmMuMRQwEgYDVQQL
DAtFbmdpbmVlcmluZzEbMBkGA1UEAwwSc3RhZ2luZyBlcC10ZXJtIENBMSMwIQYJ
KoZIhvcNAQkBFhRuaWMuZGFkZUBtaXN0c3lzLmNvbTAeFw0yMDA3MzAyMzQ0MTZa
Fw0zMDA3MjgyMzQ0MTZaMIGqMQswCQYDVQQGEwJVUzETMBEGA1UECAwKQ2FsaWZv
cm5pYTESMBAGA1UEBwwJQ3VwZXJ0aW5vMRowGAYDVQQKDBFNaXN0IFN5c3RlbXMg
SW5jLjEUMBIGA1UECwwLRW5naW5lZXJpbmcxGzAZBgNVBAMMEnN0YWdpbmcgZXAt
dGVybSBDQTEjMCEGCSqGSIb3DQEJARYUbmljLmRhZGVAbWlzdHN5cy5jb20wggIi
MA0GCSqGSIb3DQEBAQUAA4ICDwAwggIKAoICAQC+lYGdZoQ9QxeX+2Ux+wqWmSIl
JPNyvE7olNOOT6EhM8s/pi0E4ffa21d5Ap2nycNsESkGWJkkV2+7mGJkn5V6cH+z
U9lIAybK+e3f4NWLfhfc+B1X3LP3xg7vmpcSkohHOptPMhbGDq02WukV9UOW1MRd
GZIvkzrEsAYT6Gkx4dmOvC4kGCivFYzVtzzLjCxE4zwgInfrP5PzlbzbwLvdFApM
J6FqpRdJoZKAi/yqB5iK7SHJmyeYixpwcI+jOfl4WIniz/kmokkbHG13gIY32DCO
EwHBjSgZy5QKutlIO9nuaXRn695Da/SLjZlWCZ8ZRu8aO5GlCHvV/f3nQOv/J434
0Uruc0AFmkKAKFKnLnn8D1S/gX74Wr0sZOmopBmiW88wvfabymDu6bkdhIct9i0i
Pe1/m/VulQJcIqW3GvNTWHApAvugqO4QlWfRwm7VYNtpxnn1Bfl/tHLpucjjczUw
5kvdqaYYRNxILeywhbvYfIA6SYFEC2SRnTMZ+uvdOgyCqJtFFl8PYoIf1HbNQXJy
zVJ1RmVS28tSo1rqkuf0cifvsIWl4AGgRCpsjoOcRonTgViguALZgEPMIu2rK6Qv
y0F47zDedWm6wrSlLpDISaelhCld5PC3cm3NrtW8wpNIK0Tw8dXagCOH53mQGUnw
MAv81gVGraUeK6aFzwIDAQABo1AwTjAdBgNVHQ4EFgQUrsZFYABeywQFMXrpwS+b
HBoBaNowHwYDVR0jBBgwFoAUrsZFYABeywQFMXrpwS+bHBoBaNowDAYDVR0TBAUw
AwEB/zANBgkqhkiG9w0BAQsFAAOCAgEAtB4EgaOwC56sXUY+x3w9rMg9HrVCBD0t
ux6jApPH7YOGO/Hj0pC6FPuw+t2sBmMu60iBSBW5ubj4LLgvljEoKhthEaT9KzVC
XnRLYH7sNXkD43hij1OXsauT9LafweOfoArG56/7eYNJEg/cRq+x+ldVa0NKmSI6
zpwFscfQn70H9xgQ3M0wgu9JtQx950MGTXTygxynWDKPy66fRrfhGhEZpMWV//52
p0+Xco3NNrYiCaYCkJwunBgHg+j37Rfy5BhsH170IQIdUibgOEcCzu/jrVnegYpH
tyw32aVxLlqcfS4qfrMnG1ylDKlqrCFt02acegX9xovap2cfAY0D3cM6PMf85gsg
1eWdAIr1VIyBCFkBOGCBMEW2XgBF9m0KKSTJT1cCBGaDMnGDo3vPmZeE0EI5Gt8h
07mWaN8pw7AuugeCwfVd3cxLh+GJgSeGNXgpIKc7B1jmUyZQIEipzUvige99MDwS
dWa7sAZ7CEiAyxTKHb46azn4fCB0S7FmHPq6focJhkTXmia4F7jMI6equZ3WA3Up
ShyXmF3tupAMpfMmggEE51C6ZOlkgXzWTwRLelq5fsEGa5y6ctroZDgvkQAukKs3
uBoeuipK+xChW9KP7HhJcBquYV/Gde3VjixIrBZIYvCtgA18kxG6mLqR1yDJOtDg
bFIunDa8qLM=
-----END CERTIFICATE-----

