Certificate:
    Data:
        Version: 3 (0x2)
        Serial Number:
            d0:01:fc:71:8c:b5:2a:09:76:d0:38:ce:2a:fb:40:a9
    Signature Algorithm: ecdsa-with-SHA384
        Issuer: C=US, O=Mist Systems Inc., OU=Engineering, ST=California, CN=Staging Mist Federal Server Root X1
        Validity
            Not Before: Oct  1 00:00:00 2015 GMT
            Not After : Feb  5 01:19:13 2032 GMT
        Subject: C=US, O=Mist Systems Inc., OU=Engineering, ST=California, CN=Staging Mist Federal Server Root X1
        Subject Public Key Info:
            Public Key Algorithm: id-ecPublicKey
                Public-Key: (384 bit)
                pub: 
                    04:01:09:93:12:bc:df:9f:2e:1a:e3:c3:9e:47:5f:
                    8c:f1:34:1e:f8:f1:a9:32:a0:86:5b:aa:c0:cf:4e:
                    dc:1c:f0:83:81:14:73:09:1f:d4:e4:d5:b9:06:58:
                    f5:18:81:0c:eb:8f:80:30:c2:6d:49:3e:3a:4f:58:
                    f2:3d:dd:64:48:5f:e7:eb:94:31:99:1d:40:ac:77:
                    50:62:03:42:59:89:24:2d:11:cc:50:82:f4:49:fa:
                    ea:0c:98:dd:3c:07:87
                ASN1 OID: secp384r1
                NIST CURVE: P-384
        X509v3 extensions:
            X509v3 Basic Constraints: critical
                CA:TRUE
            X509v3 Subject Key Identifier: 
                8F:11:1B:40:7D:95:13:F1:38:91:06:86:2F:32:99:90:C3:21:36:BD
            X509v3 Key Usage: critical
                Digital Signature, Certificate Sign, CRL Sign
    Signature Algorithm: ecdsa-with-SHA384
         30:66:02:31:00:90:64:07:cc:6f:db:fb:06:84:66:2a:c7:e7:
         09:4c:29:f0:e9:ab:11:a4:64:3d:93:38:6a:e0:42:f2:80:75:
         4b:da:b8:07:5f:fc:af:9b:c4:c7:20:2d:17:c7:54:d0:f2:02:
         31:00:b3:74:bd:c0:33:b7:55:d5:65:92:56:1e:04:44:00:e2:
         33:76:d9:71:c4:f3:b4:c0:b4:85:56:b2:1f:ad:b7:91:b5:f3:
         5f:d4:0d:22:03:ea:66:d3:68:95:ac:e1:39:4a
-----BEGIN CERTIFICATE-----
MIIChTCCAgqgAwIBAgIRANAB/HGMtSoJdtA4zir7QKkwCgYIKoZIzj0EAwMwgYIx
CzAJBgNVBAYTAlVTMRowGAYDVQQKDBFNaXN0IFN5c3RlbXMgSW5jLjEUMBIGA1UE
CwwLRW5naW5lZXJpbmcxEzARBgNVBAgMCkNhbGlmb3JuaWExLDAqBgNVBAMMI1N0
YWdpbmcgTWlzdCBGZWRlcmFsIFNlcnZlciBSb290IFgxMB4XDTE1MTAwMTAwMDAw
MFoXDTMyMDIwNTAxMTkxM1owgYIxCzAJBgNVBAYTAlVTMRowGAYDVQQKDBFNaXN0
IFN5c3RlbXMgSW5jLjEUMBIGA1UECwwLRW5naW5lZXJpbmcxEzARBgNVBAgMCkNh
bGlmb3JuaWExLDAqBgNVBAMMI1N0YWdpbmcgTWlzdCBGZWRlcmFsIFNlcnZlciBS
b290IFgxMHYwEAYHKoZIzj0CAQYFK4EEACIDYgAEAQmTErzfny4a48OeR1+M8TQe
+PGpMqCGW6rAz07cHPCDgRRzCR/U5NW5Blj1GIEM64+AMMJtST46T1jyPd1kSF/n
65QxmR1ArHdQYgNCWYkkLRHMUIL0SfrqDJjdPAeHo0IwQDAPBgNVHRMBAf8EBTAD
AQH/MB0GA1UdDgQWBBSPERtAfZUT8TiRBoYvMpmQwyE2vTAOBgNVHQ8BAf8EBAMC
AYYwCgYIKoZIzj0EAwMDaQAwZgIxAJBkB8xv2/sGhGYqx+cJTCnw6asRpGQ9kzhq
4ELygHVL2rgHX/yvm8THIC0Xx1TQ8gIxALN0vcAzt1XVZZJWHgREAOIzdtlxxPO0
wLSFVrIfrbeRtfNf1A0iA+pm02iVrOE5Sg==
-----END CERTIFICATE-----
