Certificate:
    Data:
        Version: 3 (0x2)
        Serial Number: 3 (0x3)
        Signature Algorithm: sha256WithRSAEncryption
        Issuer: C=US, ST=California, L=Cupertino, O=Mist Systems Inc., CN=Mist Systems Internal ac2 Endpoint CA/emailAddress=certs@mistsys.com
        Validity
            Not Before: Apr  1 09:06:58 2021 GMT
            Not After : Apr  6 09:06:58 2022 GMT
        Subject: C=US, ST=California, O=Mist Systems Inc., OU=Devops, CN=client-terminator.ac2.mist.com/emailAddress=certs@mistsys.com
        Subject Public Key Info:
            Public Key Algorithm: rsaEncryption
                RSA Public-Key: (2048 bit)
                Modulus:
                    00:bb:5f:fd:fd:a8:a0:59:2b:f8:61:ec:5d:07:ab:
                    ef:c4:92:85:7b:2b:99:3a:54:2f:58:47:0a:9f:50:
                    2c:50:8d:c2:b4:5c:22:72:be:c5:d6:8f:a7:d5:ee:
                    53:28:5a:16:94:58:6c:44:c2:18:dd:65:70:03:b0:
                    cf:af:d0:5b:02:92:e4:14:9a:8c:5e:73:9c:8f:a9:
                    0d:3b:1b:b2:0a:15:73:d8:9d:ac:a2:fd:c1:e1:fc:
                    49:e6:8b:cf:a5:76:44:f6:93:02:c1:82:83:48:3b:
                    9e:54:cc:2d:4f:19:33:2e:1f:2e:a3:77:77:ed:f3:
                    02:f6:9b:3c:ac:2e:c8:58:23:dc:0c:eb:0c:a1:a1:
                    69:e6:43:25:9f:d5:ba:40:17:fc:91:04:8b:3f:a8:
                    96:be:59:20:b2:63:5b:cb:61:7e:b9:3a:75:fd:71:
                    1f:23:90:82:f8:e9:00:db:d1:68:00:fa:12:7a:f6:
                    ea:26:dc:fb:37:6c:f3:8b:bb:dc:a2:e8:5d:14:51:
                    60:69:00:ff:d1:df:43:ad:4d:63:dc:f4:ea:c8:05:
                    c7:a4:50:a8:49:21:48:f3:46:ff:c4:ac:d6:a7:1b:
                    e9:b3:82:cf:fe:d1:7b:05:b0:ec:09:3a:00:4e:cf:
                    be:e0:2d:2f:c2:78:44:54:c8:95:eb:29:01:3b:e8:
                    dc:ab
                Exponent: 65537 (0x10001)
        X509v3 extensions:
            X509v3 Basic Constraints: 
                CA:FALSE
            Netscape Cert Type: 
                SSL Server
            Netscape Comment: 
                OpenSSL Generated Certificate
            X509v3 Subject Key Identifier: 
                39:8F:CD:77:21:B5:E4:EB:FC:AA:34:F7:B3:34:E0:E5:68:BD:15:BE
            X509v3 Authority Key Identifier: 
                keyid:65:23:34:A3:BF:F6:31:AA:CE:28:89:25:9A:47:44:EC:85:87:31:2F

            X509v3 Key Usage: critical
                Digital Signature, Key Encipherment
            X509v3 Extended Key Usage: 
                TLS Web Server Authentication
            X509v3 Subject Alternative Name: 
                DNS:client-terminator.ac2.mist.com
    Signature Algorithm: sha256WithRSAEncryption
         28:af:e2:78:b4:51:7b:9b:43:0b:9a:fb:89:23:6d:50:11:f1:
         54:57:a3:a1:58:be:9c:8e:52:ae:7f:cf:b7:a5:88:b0:a4:84:
         fd:82:3e:19:75:e1:ca:68:d8:c9:8b:28:fe:9c:ac:c5:fc:32:
         97:bf:d5:ba:fc:63:a7:16:e1:58:16:72:de:57:c6:2b:ec:e3:
         fa:3f:46:97:80:54:c5:57:84:cd:e5:f3:da:43:09:b3:fd:e2:
         4f:56:e7:6c:c6:b7:5e:4b:25:f5:19:f1:a7:7c:b2:16:47:da:
         74:aa:64:e3:53:54:b9:47:b4:28:49:ec:a7:40:93:2d:8d:55:
         b3:b4:f2:6a:9a:43:b9:e7:44:4a:c8:c8:71:e7:15:ec:fe:de:
         d4:1f:2f:5a:63:81:be:a4:57:1c:78:1f:6d:64:c0:ba:b5:56:
         df:47:15:dc:3e:26:8d:0f:b8:9d:0b:62:07:ba:23:7e:30:d6:
         f4:ca:e7:fe:ad:50:d2:ef:cd:56:13:16:3c:4c:85:c9:21:f8:
         f1:b8:12:9d:83:d3:90:c1:ca:15:99:c1:fb:a0:11:59:4e:bb:
         18:ba:43:07:7d:42:9c:86:8b:6f:7d:70:74:76:8c:d3:d1:b9:
         8e:c8:f8:5f:bf:42:e8:73:ff:a4:ca:87:97:36:8d:21:7a:92:
         c1:8f:75:97:39:83:b7:c3:30:98:fd:ed:75:fb:4c:44:5a:10:
         9e:60:12:7a:b6:45:81:db:4b:5c:ba:3f:8a:65:aa:0b:45:1a:
         ad:50:bf:fd:ae:dd:af:38:46:d9:ac:cc:d1:87:c7:80:13:1d:
         da:16:3f:6a:7d:8b:3a:5a:ca:7d:75:ef:3f:e8:45:cf:26:d0:
         75:60:f4:55:1f:b8:21:4f:ec:00:78:fc:1e:be:5a:58:9f:37:
         60:8a:ff:01:26:ea:27:ac:d1:95:eb:9f:c8:9d:b9:d2:63:6e:
         e6:67:3b:75:22:5b:7b:74:2e:54:20:48:03:65:ec:16:bf:2a:
         e1:f0:f3:15:2e:95:ac:90:22:5a:dc:b6:1b:5c:eb:90:04:96:
         c5:bd:f9:95:e5:ab:0c:81:b6:b9:3b:2c:77:2b:b7:59:8a:2c:
         77:67:ee:1e:b7:ea:33:d6:49:a2:a1:a4:0f:11:1f:1e:91:8a:
         5e:76:63:03:c6:96:d4:7f:d7:fd:15:e6:16:62:89:c6:72:3d:
         ae:e3:3d:4b:7e:34:0c:7b:88:bb:30:31:d1:2e:5a:00:47:2e:
         d8:ec:79:8e:ef:fa:e2:19:68:69:2f:fa:a4:e9:53:6d:50:a9:
         0b:c9:2a:21:13:64:88:84:80:c0:c2:a6:3f:41:2a:fd:8b:0f:
         3c:68:14:28:59:2e:31:a3
-----BEGIN CERTIFICATE-----
MIIFmzCCA4OgAwIBAgIBAzANBgkqhkiG9w0BAQsFADCBpDELMAkGA1UEBhMCVVMx
EzARBgNVBAgMCkNhbGlmb3JuaWExEjAQBgNVBAcMCUN1cGVydGlubzEaMBgGA1UE
CgwRTWlzdCBTeXN0ZW1zIEluYy4xLjAsBgNVBAMMJU1pc3QgU3lzdGVtcyBJbnRl
cm5hbCBhYzIgRW5kcG9pbnQgQ0ExIDAeBgkqhkiG9w0BCQEWEWNlcnRzQG1pc3Rz
eXMuY29tMB4XDTIxMDQwMTA5MDY1OFoXDTIyMDQwNjA5MDY1OFowgZoxCzAJBgNV
BAYTAlVTMRMwEQYDVQQIDApDYWxpZm9ybmlhMRowGAYDVQQKDBFNaXN0IFN5c3Rl
bXMgSW5jLjEPMA0GA1UECwwGRGV2b3BzMScwJQYDVQQDDB5jbGllbnQtdGVybWlu
YXRvci5hYzIubWlzdC5jb20xIDAeBgkqhkiG9w0BCQEWEWNlcnRzQG1pc3RzeXMu
Y29tMIIBIjANBgkqhkiG9w0BAQEFAAOCAQ8AMIIBCgKCAQEAu1/9/aigWSv4Yexd
B6vvxJKFeyuZOlQvWEcKn1AsUI3CtFwicr7F1o+n1e5TKFoWlFhsRMIY3WVwA7DP
r9BbApLkFJqMXnOcj6kNOxuyChVz2J2sov3B4fxJ5ovPpXZE9pMCwYKDSDueVMwt
TxkzLh8uo3d37fMC9ps8rC7IWCPcDOsMoaFp5kMln9W6QBf8kQSLP6iWvlkgsmNb
y2F+uTp1/XEfI5CC+OkA29FoAPoSevbqJtz7N2zzi7vcouhdFFFgaQD/0d9DrU1j
3PTqyAXHpFCoSSFI80b/xKzWpxvps4LP/tF7BbDsCToATs++4C0vwnhEVMiV6ykB
O+jcqwIDAQABo4HfMIHcMAkGA1UdEwQCMAAwEQYJYIZIAYb4QgEBBAQDAgZAMCwG
CWCGSAGG+EIBDQQfFh1PcGVuU1NMIEdlbmVyYXRlZCBDZXJ0aWZpY2F0ZTAdBgNV
HQ4EFgQUOY/NdyG15Ov8qjT3szTg5Wi9Fb4wHwYDVR0jBBgwFoAUZSM0o7/2MarO
KIklmkdE7IWHMS8wDgYDVR0PAQH/BAQDAgWgMBMGA1UdJQQMMAoGCCsGAQUFBwMB
MCkGA1UdEQQiMCCCHmNsaWVudC10ZXJtaW5hdG9yLmFjMi5taXN0LmNvbTANBgkq
hkiG9w0BAQsFAAOCAgEAKK/ieLRRe5tDC5r7iSNtUBHxVFejoVi+nI5Srn/Pt6WI
sKSE/YI+GXXhymjYyYso/pysxfwyl7/VuvxjpxbhWBZy3lfGK+zj+j9Gl4BUxVeE
zeXz2kMJs/3iT1bnbMa3Xksl9Rnxp3yyFkfadKpk41NUuUe0KEnsp0CTLY1Vs7Ty
appDuedESsjIcecV7P7e1B8vWmOBvqRXHHgfbWTAurVW30cV3D4mjQ+4nQtiB7oj
fjDW9Mrn/q1Q0u/NVhMWPEyFySH48bgSnYPTkMHKFZnB+6ARWU67GLpDB31CnIaL
b31wdHaM09G5jsj4X79C6HP/pMqHlzaNIXqSwY91lzmDt8MwmP3tdftMRFoQnmAS
erZFgdtLXLo/imWqC0UarVC//a7drzhG2azM0YfHgBMd2hY/an2LOlrKfXXvP+hF
zybQdWD0VR+4IU/sAHj8Hr5aWJ83YIr/ASbqJ6zRleufyJ250mNu5mc7dSJbe3Qu
VCBIA2XsFr8q4fDzFS6VrJAiWty2G1zrkASWxb35leWrDIG2uTssdyu3WYosd2fu
HrfqM9ZJoqGkDxEfHpGKXnZjA8aW1H/X/RXmFmKJxnI9ruM9S340DHuIuzAx0S5a
AEcu2Ox5ju/64hloaS/6pOlTbVCpC8kqIRNkiISAwMKmP0Eq/YsPPGgUKFkuMaM=
-----END CERTIFICATE-----
