 - The kalam env CA cert ------------------------------------------------------------------------------------------------------

Certificate:
    Data:
        Version: 3 (0x2)
        Serial Number:
            e0:af:c3:9f:2f:13:0c:19
    Signature Algorithm: sha256WithRSAEncryption
        Issuer: C=US, ST=California, L=Cupertino, O=Mist Systems Inc., OU=Engineering, CN=Mist Systems Internal Endpoint CA for kalam environment
        Validity
            Not Before: Apr 30 04:57:46 2016 GMT
            Not After : Apr 28 04:57:46 2026 GMT
        Subject: C=US, ST=California, L=Cupertino, O=Mist Systems Inc., OU=Engineering, CN=Mist Systems Internal Endpoint CA for kalam environment
        Subject Public Key Info:
            Public Key Algorithm: rsaEncryption
                Public-Key: (4096 bit)
                Modulus:
                    00:d4:48:f4:63:52:5e:23:3b:81:94:d5:1b:85:cf:
                    00:20:ad:5e:bc:02:fa:d0:e5:94:2a:14:40:1d:db:
                    a2:42:ad:50:94:93:ed:e6:9c:f1:6b:85:90:cf:8b:
                    7b:e0:9a:71:9d:1c:00:b2:38:3c:00:ec:75:b7:02:
                    c7:8d:d7:40:d4:34:3f:9e:df:ab:d7:f3:1b:5a:1c:
                    31:f0:1a:e1:27:3b:08:28:0b:4b:ca:03:f3:2d:d7:
                    1a:1c:8c:f9:4d:af:8a:5a:0f:59:82:41:b8:28:58:
                    71:aa:15:1b:d0:5a:e9:2b:d3:1a:c4:fb:8b:40:af:
                    03:ed:6f:6e:0a:c2:9f:cc:7d:4d:5e:d5:ba:25:fe:
                    dc:a5:cb:20:65:4f:96:20:a4:14:6b:9a:e3:42:30:
                    4c:6d:c6:78:b5:62:15:ba:9c:e0:d4:1e:3d:46:5a:
                    7d:c4:c1:93:17:87:e7:0d:10:e8:bb:59:fa:34:39:
                    35:df:c6:42:21:b8:76:7a:6c:5b:f1:f5:1b:f0:84:
                    cc:b2:e4:47:bd:db:ff:04:fb:27:0f:df:20:b4:de:
                    7a:1c:bd:57:be:80:f7:e6:fa:04:03:ae:56:ec:92:
                    4a:27:c3:c4:aa:77:33:a9:cb:82:8f:cd:a0:81:11:
                    28:be:00:bd:e9:84:23:6c:0d:33:e0:d6:ea:80:af:
                    1e:75:f4:91:35:6f:cd:07:da:85:60:9b:53:8a:bb:
                    f7:47:2e:58:f9:3b:1a:22:d0:3e:3e:ec:5c:4f:6e:
                    ee:38:91:15:51:c4:f7:41:6e:4a:3d:7a:7c:8f:6e:
                    f6:c0:fa:34:89:13:be:80:18:32:2b:32:3e:ec:7a:
                    67:14:4f:65:e8:78:1f:8c:4d:3e:21:3b:7f:7c:24:
                    33:05:05:ca:8b:c1:0a:38:d7:1a:1a:f5:a6:00:b5:
                    44:19:1a:11:c4:b7:f6:f0:94:11:65:ab:cd:a9:98:
                    7e:9d:2a:af:2e:dd:43:79:a4:23:9f:7e:38:7a:e9:
                    42:c1:c8:77:a5:a2:2a:b9:e8:3f:02:dc:93:42:ee:
                    3e:28:bb:66:86:f4:74:8b:9b:bd:59:ea:a6:fd:d5:
                    dc:8a:84:82:cc:e5:76:dd:87:9f:65:66:67:45:c9:
                    cc:f9:92:b6:94:bd:96:8a:6d:5d:98:02:e2:e3:53:
                    1a:ab:bb:28:2b:a5:ce:d5:ce:c5:b3:e2:42:c0:57:
                    51:1a:a8:a3:3f:12:31:35:d1:88:35:af:68:fd:df:
                    d7:74:de:90:e1:68:da:12:94:98:bf:1e:0b:0d:c7:
                    d0:70:fe:68:bf:d6:9f:47:0d:d1:40:c3:02:67:ef:
                    59:56:46:7b:09:e3:b3:57:24:bc:aa:5a:76:6b:c2:
                    b3:49:1f
                Exponent: 65537 (0x10001)
        X509v3 extensions:
            X509v3 Subject Key Identifier: 
                94:6B:FB:61:64:DC:0A:84:5C:A1:56:F3:97:7E:A8:BA:A9:E1:8F:44
            X509v3 Authority Key Identifier: 
                keyid:94:6B:FB:61:64:DC:0A:84:5C:A1:56:F3:97:7E:A8:BA:A9:E1:8F:44

            X509v3 Basic Constraints: 
                CA:TRUE
    Signature Algorithm: sha256WithRSAEncryption
         48:24:cd:b1:72:7e:f6:37:28:de:51:15:9e:03:45:e2:43:c9:
         4f:6f:87:24:8f:8b:93:bb:b2:b4:28:5e:26:07:b1:9c:90:f3:
         8f:90:86:22:35:1b:1b:1b:56:69:57:d9:ad:33:25:9f:df:f1:
         30:d3:aa:cb:d1:38:ab:44:3e:2d:5e:02:03:2d:3c:a4:74:fa:
         a3:1e:9e:44:42:0f:57:5b:fe:1d:50:4c:c6:90:42:ea:34:22:
         0d:21:b8:f8:e4:1a:9c:c1:42:5c:25:d1:11:ae:8c:a9:52:8c:
         b0:4a:b1:07:47:ec:76:a9:e0:be:8a:89:95:3a:75:4f:16:3f:
         86:b1:18:3b:ed:05:49:24:ce:d9:02:e7:44:d1:36:c6:c1:d6:
         ad:62:08:e3:8f:7e:17:be:b0:f4:17:5e:61:25:69:25:ce:04:
         4a:7f:1a:bb:1b:ab:fa:0a:a6:7d:ab:26:7c:4c:aa:db:21:33:
         c8:27:ef:c4:43:5d:ae:88:3a:bc:5a:94:9b:75:79:ce:6c:6c:
         22:a9:52:25:0f:0a:4f:f7:cf:5e:d1:e3:e9:90:30:2d:10:19:
         08:aa:44:0f:58:7c:27:09:6d:b0:61:ee:f3:7f:28:80:5b:f1:
         92:41:4d:a6:f9:cc:20:11:d8:5e:ef:4b:be:c7:17:cf:c7:e5:
         c7:88:55:9a:5d:2b:4b:27:2b:01:ba:a5:55:b6:66:86:34:6e:
         80:a6:fd:2c:66:6a:7a:8a:fa:5a:66:e4:d7:bf:ed:b8:fa:87:
         f3:0f:fa:f9:9c:c3:7c:7a:7e:f9:ac:07:92:9e:f5:32:3a:c0:
         6f:b0:b1:55:57:98:75:5a:74:17:6b:42:c7:2b:e5:ca:f9:6e:
         18:21:ce:c3:3a:cb:66:70:b1:f1:46:6a:2d:46:4a:68:85:be:
         f9:b9:ce:2b:cf:9d:cb:f0:05:10:19:b1:44:c2:e3:6a:04:a4:
         12:61:58:aa:e6:ce:39:23:88:2e:8b:80:fb:d1:19:a1:2e:df:
         f1:b2:ad:d2:8c:c3:1f:45:dd:c9:7a:69:7a:36:76:16:ad:f0:
         f6:28:ee:7c:83:68:29:a1:90:ae:00:de:4c:6f:2a:92:ad:90:
         e6:b2:5c:5e:35:c1:ff:57:1b:1d:d1:93:e8:df:66:fa:1e:9f:
         9d:86:65:41:b7:10:f0:bf:14:4f:f6:49:93:eb:e6:31:c4:81:
         6d:4f:89:b9:d1:7b:b2:b9:1a:af:53:6e:dd:81:d8:53:c7:cc:
         b9:bf:02:c2:60:a1:6b:fc:4c:1a:d3:65:10:1d:de:26:6c:6d:
         ad:88:ad:16:b3:eb:5f:86:48:73:be:95:9b:f3:6f:0f:ee:d9:
         dc:df:ae:ba:d5:cb:0b:b4
-----BEGIN CERTIFICATE-----
MIIGKTCCBBGgAwIBAgIJAOCvw58vEwwZMA0GCSqGSIb3DQEBCwUAMIGqMQswCQYD
VQQGEwJVUzETMBEGA1UECAwKQ2FsaWZvcm5pYTESMBAGA1UEBwwJQ3VwZXJ0aW5v
MRowGAYDVQQKDBFNaXN0IFN5c3RlbXMgSW5jLjEUMBIGA1UECwwLRW5naW5lZXJp
bmcxQDA+BgNVBAMMN01pc3QgU3lzdGVtcyBJbnRlcm5hbCBFbmRwb2ludCBDQSBm
b3Iga2FsYW0gZW52aXJvbm1lbnQwHhcNMTYwNDMwMDQ1NzQ2WhcNMjYwNDI4MDQ1
NzQ2WjCBqjELMAkGA1UEBhMCVVMxEzARBgNVBAgMCkNhbGlmb3JuaWExEjAQBgNV
BAcMCUN1cGVydGlubzEaMBgGA1UECgwRTWlzdCBTeXN0ZW1zIEluYy4xFDASBgNV
BAsMC0VuZ2luZWVyaW5nMUAwPgYDVQQDDDdNaXN0IFN5c3RlbXMgSW50ZXJuYWwg
RW5kcG9pbnQgQ0EgZm9yIGthbGFtIGVudmlyb25tZW50MIICIjANBgkqhkiG9w0B
AQEFAAOCAg8AMIICCgKCAgEA1Ej0Y1JeIzuBlNUbhc8AIK1evAL60OWUKhRAHdui
Qq1QlJPt5pzxa4WQz4t74JpxnRwAsjg8AOx1twLHjddA1DQ/nt+r1/MbWhwx8Brh
JzsIKAtLygPzLdcaHIz5Ta+KWg9ZgkG4KFhxqhUb0FrpK9MaxPuLQK8D7W9uCsKf
zH1NXtW6Jf7cpcsgZU+WIKQUa5rjQjBMbcZ4tWIVupzg1B49Rlp9xMGTF4fnDRDo
u1n6NDk138ZCIbh2emxb8fUb8ITMsuRHvdv/BPsnD98gtN56HL1XvoD35voEA65W
7JJKJ8PEqnczqcuCj82ggREovgC96YQjbA0z4NbqgK8edfSRNW/NB9qFYJtTirv3
Ry5Y+TsaItA+PuxcT27uOJEVUcT3QW5KPXp8j272wPo0iRO+gBgyKzI+7HpnFE9l
6HgfjE0+ITt/fCQzBQXKi8EKONcaGvWmALVEGRoRxLf28JQRZavNqZh+nSqvLt1D
eaQjn344eulCwch3paIqueg/AtyTQu4+KLtmhvR0i5u9Weqm/dXcioSCzOV23Yef
ZWZnRcnM+ZK2lL2Wim1dmALi41Maq7soK6XO1c7Fs+JCwFdRGqijPxIxNdGINa9o
/d/XdN6Q4WjaEpSYvx4LDcfQcP5ov9afRw3RQMMCZ+9ZVkZ7CeOzVyS8qlp2a8Kz
SR8CAwEAAaNQME4wHQYDVR0OBBYEFJRr+2Fk3AqEXKFW85d+qLqp4Y9EMB8GA1Ud
IwQYMBaAFJRr+2Fk3AqEXKFW85d+qLqp4Y9EMAwGA1UdEwQFMAMBAf8wDQYJKoZI
hvcNAQELBQADggIBAEgkzbFyfvY3KN5RFZ4DReJDyU9vhySPi5O7srQoXiYHsZyQ
84+QhiI1GxsbVmlX2a0zJZ/f8TDTqsvROKtEPi1eAgMtPKR0+qMenkRCD1db/h1Q
TMaQQuo0Ig0huPjkGpzBQlwl0RGujKlSjLBKsQdH7Hap4L6KiZU6dU8WP4axGDvt
BUkkztkC50TRNsbB1q1iCOOPfhe+sPQXXmElaSXOBEp/Grsbq/oKpn2rJnxMqtsh
M8gn78RDXa6IOrxalJt1ec5sbCKpUiUPCk/3z17R4+mQMC0QGQiqRA9YfCcJbbBh
7vN/KIBb8ZJBTab5zCAR2F7vS77HF8/H5ceIVZpdK0snKwG6pVW2ZoY0boCm/Sxm
anqK+lpm5Ne/7bj6h/MP+vmcw3x6fvmsB5Ke9TI6wG+wsVVXmHVadBdrQscr5cr5
bhghzsM6y2ZwsfFGai1GSmiFvvm5zivPncvwBRAZsUTC42oEpBJhWKrmzjkjiC6L
gPvRGaEu3/GyrdKMwx9F3cl6aXo2dhat8PYo7nyDaCmhkK4A3kxvKpKtkOayXF41
wf9XGx3Rk+jfZvoen52GZUG3EPC/FE/2SZPr5jHEgW1PibnRe7K5Gq9Tbt2B2FPH
zLm/AsJgoWv8TBrTZRAd3iZsba2IrRaz61+GSHO+lZvzbw/u2dzfrrrVywu0
-----END CERTIFICATE-----
