Certificate:
    Data:
        Version: 3 (0x2)
        Serial Number:
            b9:bc:14:30:f2:4d:61:0b:1e:89:67:b8:a5:1d:1b:cf
    Signature Algorithm: ecdsa-with-SHA384
        Issuer: C=US, O=Mist Systems Inc., OU=Engineering, ST=California, CN=Mist Federal Server Root X1
        Validity
            Not Before: Oct  1 00:00:00 2015 GMT
            Not After : Feb  8 19:16:51 2032 GMT
        Subject: C=US, O=Mist Systems Inc., OU=Engineering, ST=California, CN=Mist Federal Server Root X1
        Subject Public Key Info:
            Public Key Algorithm: id-ecPublicKey
                Public-Key: (384 bit)
                pub: 
                    04:f8:9b:5b:b0:6d:35:ce:72:31:03:92:f5:99:af:
                    b8:d7:16:59:42:57:d4:c5:74:7d:3c:5b:80:ed:1e:
                    18:ed:53:17:03:54:c0:4f:42:cb:ed:40:47:d5:5a:
                    c1:2a:2b:dd:7c:2c:c7:67:7a:a3:d4:cd:28:a6:2d:
                    ca:f8:d2:a7:26:5b:34:6e:4e:25:15:68:2d:be:53:
                    d0:ed:74:1a:97:87:66:5b:2e:da:68:0c:b3:3b:ed:
                    f2:84:c1:7b:2d:b6:46
                ASN1 OID: secp384r1
                NIST CURVE: P-384
        X509v3 extensions:
            X509v3 Basic Constraints: critical
                CA:TRUE
            X509v3 Subject Key Identifier: 
                03:8C:15:22:B1:1E:0E:8F:22:2E:BF:0D:1E:EE:C4:81:9E:FD:12:7A
            X509v3 Key Usage: critical
                Digital Signature, Certificate Sign, CRL Sign
    Signature Algorithm: ecdsa-with-SHA384
         30:65:02:30:53:b4:4d:8b:c9:59:5f:14:cb:b4:a4:ee:0d:ba:
         17:01:1b:01:40:d7:03:d9:9f:fb:3b:ef:a0:f3:83:5f:78:2c:
         9e:ef:49:a0:7e:f3:89:9c:59:59:c9:0c:b8:05:61:d5:02:31:
         00:c3:33:da:9f:2f:f2:3a:f0:8e:3f:cb:e8:52:f5:59:60:ec:
         0f:3a:11:77:83:d6:fb:39:eb:db:ff:9c:f2:5c:21:f5:a9:db:
         1d:c1:a6:e3:ba:79:41:4d:68:d0:67:60:89
-----BEGIN CERTIFICATE-----
MIICcjCCAfigAwIBAgIRALm8FDDyTWELHolnuKUdG88wCgYIKoZIzj0EAwMwejEL
MAkGA1UEBhMCVVMxGjAYBgNVBAoMEU1pc3QgU3lzdGVtcyBJbmMuMRQwEgYDVQQL
DAtFbmdpbmVlcmluZzETMBEGA1UECAwKQ2FsaWZvcm5pYTEkMCIGA1UEAwwbTWlz
dCBGZWRlcmFsIFNlcnZlciBSb290IFgxMB4XDTE1MTAwMTAwMDAwMFoXDTMyMDIw
ODE5MTY1MVowejELMAkGA1UEBhMCVVMxGjAYBgNVBAoMEU1pc3QgU3lzdGVtcyBJ
bmMuMRQwEgYDVQQLDAtFbmdpbmVlcmluZzETMBEGA1UECAwKQ2FsaWZvcm5pYTEk
MCIGA1UEAwwbTWlzdCBGZWRlcmFsIFNlcnZlciBSb290IFgxMHYwEAYHKoZIzj0C
AQYFK4EEACIDYgAE+JtbsG01znIxA5L1ma+41xZZQlfUxXR9PFuA7R4Y7VMXA1TA
T0LL7UBH1VrBKivdfCzHZ3qj1M0opi3K+NKnJls0bk4lFWgtvlPQ7XQal4dmWy7a
aAyzO+3yhMF7LbZGo0IwQDAPBgNVHRMBAf8EBTADAQH/MB0GA1UdDgQWBBQDjBUi
sR4OjyIuvw0e7sSBnv0SejAOBgNVHQ8BAf8EBAMCAYYwCgYIKoZIzj0EAwMDaAAw
ZQIwU7RNi8lZXxTLtKTuDboXARsBQNcD2Z/7O++g84NfeCye70mgfvOJnFlZyQy4
BWHVAjEAwzPany/yOvCOP8voUvVZYOwPOhF3g9b7Oevb/5zyXCH1qdsdwabjunlB
TWjQZ2CJ
-----END CERTIFICATE-----
